; Function Attrs: nounwind sspstrong uwtable
define internal void @machine_set_nvdimm(ptr noundef %obj, i1 noundef zeroext %value, ptr readnone captures(none) %errp) #0 {
entry:
  %frombool = zext i1 %value to i8
  %call.i = tail call ptr @object_dynamic_cast_assert(ptr noundef %obj, ptr noundef nonnull @.str.225, ptr noundef nonnull @.str.226, i32 noundef 23, ptr noundef nonnull @__func__.MACHINE) #16
  %nvdimms_state = getelementptr inbounds nuw i8, ptr %call.i, i64 328
  %0 = load ptr, ptr %nvdimms_state, align 8
  store i8 %frombool, ptr %0, align 16
  ret void
}